(dp0
S'<VotingArea.VotingArea object at 0x1766b50>'
p1
ccopy_reg
_reconstructor
p2
(cVotingArea
VotingArea
p3
c__builtin__
object
p4
Ntp5
Rp6
(dp7
S'VAnum'
p8
I0
sS'potentialneighbours'
p9
(lp10
sS'ED'
p11
S''
p12
sS'winner'
p13
S'LIB'
p14
sS'coordinates'
p15
(lp16
S'-122.229439649,49.2075708324'
p17
aS'-122.229215335,49.2056086276'
p18
aS'-122.229214155,49.2023090904'
p19
aS'-122.229399124,49.2018241469'
p20
aS'-122.229784657,49.2010543617'
p21
aS'-122.229864046,49.2005174355'
p22
aS'-122.229736428,49.1998583823'
p23
aS'-122.229694406,49.1994396648'
p24
aS'-122.230135153,49.198819422'
p25
aS'-122.230742299,49.1979926683'
p26
aS'-122.230704449,49.1966535547'
p27
aS'-122.23086441,49.1958367713'
p28
aS'-122.231260487,49.1950612891'
p29
aS'-122.231981343,49.1942829588'
p30
aS'-122.232517904,49.1934743633'
p31
aS'-122.23272461,49.1927031542'
p32
aS'-122.232652671,49.1919832163'
p33
aS'-122.232470516,49.1911970532'
p34
aS'-122.232784769,49.190510584'
p35
aS'-122.233205003,49.1896720805'
p36
aS'-122.233133022,49.1888691824'
p37
aS'-122.232746642,49.1882614017'
p38
aS'-122.232214584,49.1874674049'
p39
aS'-122.23181627,49.1869326144'
p40
aS'-122.231543969,49.1861998581'
p41
aS'-122.231578223,49.1851616094'
p42
aS'-122.231673262,49.1841653752'
p43
aS'-122.231578351,49.1837776346'
p44
aS'-122.236297196,49.1839136458'
p45
aS'-122.237214627,49.1839282447'
p46
aS'-122.241084785,49.1839755997'
p47
aS'-122.24694276,49.1839303803'
p48
aS'-122.24731266,49.1841151721'
p49
aS'-122.247661865,49.1842999632'
p50
aS'-122.247663216,49.1841137474'
p51
aS'-122.255605901,49.1844669514'
p52
aS'-122.255723898,49.1778279994'
p53
aS'-122.255861084,49.176463251'
p54
aS'-122.267900502,49.1766462622'
p55
aS'-122.269570749,49.1766715415'
p56
aS'-122.270152845,49.1809694491'
p57
aS'-122.2696709,49.1865334793'
p58
aS'-122.269471877,49.1865772735'
p59
aS'-122.268729999,49.1867741711'
p60
aS'-122.26823249,49.1872915151'
p61
aS'-122.267541774,49.1876660815'
p62
aS'-122.267475877,49.1882229479'
p63
aS'-122.267999655,49.1885490915'
p64
aS'-122.268803603,49.1894402909'
p65
aS'-122.26898013,49.1906088549'
p66
aS'-122.269667358,49.1913163302'
p67
aS'-122.269665253,49.1917030033'
p68
aS'-122.269664562,49.1917948649'
p69
aS'-122.269662934,49.1921409478'
p70
aS'-122.269661809,49.1923029519'
p71
aS'-122.269659185,49.1928487795'
p72
aS'-122.269654293,49.193739979'
p73
aS'-122.269647924,49.1949715639'
p74
aS'-122.269645661,49.1953585926'
p75
aS'-122.269652467,49.1956348896'
p76
aS'-122.269706457,49.1955579819'
p77
aS'-122.269772476,49.1954643402'
p78
aS'-122.270051089,49.1963359567'
p79
aS'-122.26963992,49.1964189164'
p80
aS'-122.269630569,49.1981528916'
p81
aS'-122.269698554,49.1981938377'
p82
aS'-122.269699937,49.198197042'
p83
aS'-122.269699312,49.1984943457'
p84
aS'-122.269699276,49.1986915991'
p85
aS'-122.269695126,49.2002058898'
p86
aS'-122.26969496,49.2002357974'
p87
aS'-122.269694963,49.2002635701'
p88
aS'-122.269694721,49.2003732338'
p89
aS'-122.269621177,49.2005815249'
p90
aS'-122.269620246,49.2021766393'
p91
aS'-122.269619737,49.2028858956'
p92
aS'-122.269617657,49.2057955553'
p93
aS'-122.269617743,49.2058037441'
p94
aS'-122.269612803,49.212950071'
p95
aS'-122.269608237,49.220024831'
p96
aS'-122.269608715,49.2200444139'
p97
aS'-122.269603788,49.227267648'
p98
aS'-122.269603589,49.2272772615'
p99
aS'-122.269598971,49.2345004954'
p100
aS'-122.26959906,49.2345346761'
p101
aS'-122.269599129,49.2345855919'
p102
aS'-122.247453779,49.2341241477'
p103
aS'-122.247437191,49.2334857463'
p104
aS'-122.247417413,49.2305315798'
p105
aS'-122.247349651,49.2260349946'
p106
aS'-122.247288066,49.225421516'
p107
aS'-122.247187873,49.2248885062'
p108
aS'-122.247158065,49.2236234519'
p109
aS'-122.246273912,49.2215971579'
p110
aS'-122.246169863,49.2213589596'
p111
aS'-122.245780402,49.2207433447'
p112
aS'-122.24569708,49.2203912091'
p113
aS'-122.245885354,49.220258401'
p114
aS'-122.245542135,49.2201394795'
p115
aS'-122.243485195,49.2202601812'
p116
aS'-122.239307452,49.2202423793'
p117
aS'-122.236478777,49.2202238645'
p118
aS'-122.236432945,49.2185554028'
p119
aS'-122.236424673,49.2178917214'
p120
aS'-122.236418438,49.2174153237'
p121
aS'-122.236410195,49.2167562705'
p122
aS'-122.236482342,49.2130412206'
p123
aS'-122.233665533,49.2130088196'
p124
aS'-122.233638456,49.2127271823'
p125
aS'-122.233191705,49.2118199606'
p126
aS'-122.23237172,49.2106905626'
p127
aS'-122.230853923,49.2086318682'
p128
aS'-122.229822304,49.2079749513'
p129
aS'-122.229439649,49.2075708324'
p130
asS'adjEDs'
p131
(lp132
sS'runup'
p133
S'NDP'
p134
sS'winnerVotes'
p135
S'68'
p136
sS'EDName'
p137
S'Abbotsford-Mission'
p138
sS'runupVotes'
p139
S'60'
p140
sS'adjVAs'
p141
(lp142
sbsS'<VotingArea.VotingArea object at 0x175b310>'
p143
g2
(g3
g4
Ntp144
Rp145
(dp146
g8
I0
sg9
(lp147
sg11
g12
sg13
S'LIB'
p148
sg15
(lp149
S'-122.137589563,49.4494831205'
p150
aS'-122.136067204,49.4441590699'
p151
aS'-122.137354118,49.4404247925'
p152
aS'-122.138697188,49.439505109'
p153
aS'-122.14514029,49.4363138122'
p154
aS'-122.15070493,49.4347721054'
p155
aS'-122.151912436,49.4345292777'
p156
aS'-122.15675877,49.4310075641'
p157
aS'-122.158628596,49.4297952059'
p158
aS'-122.161356817,49.4278191154'
p159
aS'-122.163580783,49.4268855463'
p160
aS'-122.16565969,49.4252612353'
p161
aS'-122.166673301,49.4247047258'
p162
aS'-122.169880025,49.4227870273'
p163
aS'-122.172937849,49.4203395235'
p164
aS'-122.174195465,49.4177862727'
p165
aS'-122.174772351,49.4152105899'
p166
aS'-122.173767352,49.4135392799'
p167
aS'-122.173834564,49.4123019981'
p168
aS'-122.17184343,49.4099513405'
p169
aS'-122.172436153,49.4090095821'
p170
aS'-122.17430578,49.4077317106'
p171
aS'-122.178875952,49.404607707'
p172
aS'-122.179535891,49.4041569446'
p173
aS'-122.181128197,49.4030684928'
p174
aS'-122.181607892,49.4016560333'
p175
aS'-122.185244267,49.399487674'
p176
aS'-122.185639329,49.3978861506'
p177
aS'-122.18539188,49.3963412393'
p178
aS'-122.185027933,49.394640378'
p179
aS'-122.184947682,49.3927924663'
p180
aS'-122.183588641,49.3889638352'
p181
aS'-122.182857637,49.385723759'
p182
aS'-122.182142442,49.3836098758'
p183
aS'-122.179847111,49.382400366'
p184
aS'-122.178269005,49.3813457393'
p185
aS'-122.175625749,49.3795619169'
p186
aS'-122.173794247,49.3772575458'
p187
aS'-122.170515906,49.3752344565'
p188
aS'-122.166977022,49.3723376151'
p189
aS'-122.164230862,49.3698067945'
p190
aS'-122.161769199,49.3671022213'
p191
aS'-122.161617932,49.366706647'
p192
aS'-122.161686136,49.3635908331'
p193
aS'-122.161518854,49.3602442969'
p194
aS'-122.162041685,49.3582881452'
p195
aS'-122.163991851,49.356937639'
p196
aS'-122.166245098,49.3544993928'
p197
aS'-122.167643924,49.3527180622'
p198
aS'-122.169373541,49.3504111995'
p199
aS'-122.170578945,49.3479555066'
p200
aS'-122.171501787,49.3453100373'
p201
aS'-122.172950346,49.3423473258'
p202
aS'-122.173943065,49.3382018088'
p203
aS'-122.174356969,49.3357169189'
p204
aS'-122.174420903,49.3327396098'
p205
aS'-122.173790381,49.3304384431'
p206
aS'-122.173042199,49.3280087419'
p207
aS'-122.171671431,49.3266265472'
p208
aS'-122.17041002,49.3257485216'
p209
aS'-122.167854432,49.3248167324'
p210
aS'-122.170542839,49.323949745'
p211
aS'-122.176381796,49.3218461883'
p212
aS'-122.181922887,49.3196949198'
p213
aS'-122.185151666,49.3184419714'
p214
aS'-122.18945103,49.3168343952'
p215
aS'-122.193125906,49.3149654765'
p216
aS'-122.195764404,49.3116979838'
p217
aS'-122.196426116,49.3099219954'
p218
aS'-122.197453708,49.3078141653'
p219
aS'-122.198624709,49.3056119813'
p220
aS'-122.200413851,49.3040969789'
p221
aS'-122.202044287,49.3028661056'
p222
aS'-122.202785652,49.3022248557'
p223
aS'-122.203732297,49.2493318552'
p224
aS'-122.214529277,49.2490865358'
p225
aS'-122.217374466,49.2490519987'
p226
aS'-122.219902046,49.24907799'
p227
aS'-122.221743048,49.2490694449'
p228
aS'-122.225453955,49.2490523548'
p229
aS'-122.231183987,49.2491189358'
p230
aS'-122.236389811,49.2491791087'
p231
aS'-122.247505646,49.2491983354'
p232
aS'-122.247458778,49.2468857763'
p233
aS'-122.247504391,49.2427139105'
p234
aS'-122.247486844,49.240382124'
p235
aS'-122.24744873,49.2385224621'
p236
aS'-122.247487645,49.2365876738'
p237
aS'-122.247463664,49.2348444414'
p238
aS'-122.247453779,49.2341241477'
p239
aS'-122.269599129,49.2345855919'
p240
aS'-122.269599586,49.2382475901'
p241
aS'-122.269599256,49.2417892424'
p242
aS'-122.269599234,49.2421086212'
p243
aS'-122.269599963,49.2489654773'
p244
aS'-122.269592466,49.250173563'
p245
aS'-122.269576367,49.2526894291'
p246
aS'-122.26955372,49.256324367'
p247
aS'-122.269507982,49.2636885985'
p248
aS'-122.269528715,49.2636885982'
p249
aS'-122.273265482,49.263730612'
p250
aS'-122.273293114,49.2659940372'
p251
aS'-122.273293057,49.2660043625'
p252
aS'-122.273363288,49.271680549'
p253
aS'-122.273383067,49.2732877696'
p254
aS'-122.273388435,49.2737214408'
p255
aS'-122.27344951,49.2805701079'
p256
aS'-122.273486118,49.2846992466'
p257
aS'-122.276341303,49.2882145517'
p258
aS'-122.281922297,49.2950753247'
p259
aS'-122.294078796,49.3087876119'
p260
aS'-122.298747974,49.3140518466'
p261
aS'-122.298186795,49.341943919'
p262
aS'-122.297928077,49.3531645518'
p263
aS'-122.317584029,49.3531463932'
p264
aS'-122.320430951,49.3531431893'
p265
aS'-122.3173429,49.3572328059'
p266
aS'-122.315442958,49.3601812758'
p267
aS'-122.315453902,49.3613954143'
p268
aS'-122.315215143,49.3656847764'
p269
aS'-122.314617828,49.3700884319'
p270
aS'-122.294843623,49.4234232933'
p271
aS'-122.29081245,49.4342793288'
p272
aS'-122.310203205,49.440557956'
p273
aS'-122.309495436,49.4503789481'
p274
aS'-122.222353104,49.4710531276'
p275
aS'-122.220427376,49.4715088745'
p276
aS'-122.157980947,49.472086035'
p277
aS'-122.13682673,49.474011922'
p278
aS'-122.140912985,49.47003909'
p279
aS'-122.144940196,49.4683603034'
p280
aS'-122.144342433,49.4610893587'
p281
aS'-122.144883523,49.4566372796'
p282
aS'-122.141540863,49.4537842322'
p283
aS'-122.137589563,49.4494831205'
p284
asg131
(lp285
sg133
S'NDP'
p286
sg135
S'40'
p287
sg137
S'Abbotsford-Mission'
p288
sg139
S'38'
p289
sg141
(lp290
sbsS'<VotingArea.VotingArea object at 0x1766710>'
p291
g2
(g3
g4
Ntp292
Rp293
(dp294
g8
I0
sg9
(lp295
sg11
g12
sg13
S'LIB'
p296
sg15
(lp297
S'-122.203711958,49.199164436'
p298
aS'-122.229736428,49.1998583823'
p299
aS'-122.229864046,49.2005174355'
p300
aS'-122.229784657,49.2010543617'
p301
aS'-122.229399124,49.2018241469'
p302
aS'-122.229214155,49.2023090904'
p303
aS'-122.229215335,49.2056086276'
p304
aS'-122.229439649,49.2075708324'
p305
aS'-122.229822304,49.2079749513'
p306
aS'-122.230853923,49.2086318682'
p307
aS'-122.23237172,49.2106905626'
p308
aS'-122.233191705,49.2118199606'
p309
aS'-122.233638456,49.2127271823'
p310
aS'-122.233665533,49.2130088196'
p311
aS'-122.236482342,49.2130412206'
p312
aS'-122.236410195,49.2167562705'
p313
aS'-122.236418438,49.2174153237'
p314
aS'-122.236424673,49.2178917214'
p315
aS'-122.236432945,49.2185554028'
p316
aS'-122.236478777,49.2202238645'
p317
aS'-122.239307452,49.2202423793'
p318
aS'-122.243485195,49.2202601812'
p319
aS'-122.245542135,49.2201394795'
p320
aS'-122.245885354,49.220258401'
p321
aS'-122.24569708,49.2203912091'
p322
aS'-122.245780402,49.2207433447'
p323
aS'-122.246169863,49.2213589596'
p324
aS'-122.246273912,49.2215971579'
p325
aS'-122.247158065,49.2236234519'
p326
aS'-122.247187873,49.2248885062'
p327
aS'-122.247288066,49.225421516'
p328
aS'-122.247349651,49.2260349946'
p329
aS'-122.247417413,49.2305315798'
p330
aS'-122.247437191,49.2334857463'
p331
aS'-122.247453779,49.2341241477'
p332
aS'-122.247463664,49.2348444414'
p333
aS'-122.247487645,49.2365876738'
p334
aS'-122.24744873,49.2385224621'
p335
aS'-122.247486844,49.240382124'
p336
aS'-122.247504391,49.2427139105'
p337
aS'-122.247458778,49.2468857763'
p338
aS'-122.247505646,49.2491983354'
p339
aS'-122.236389811,49.2491791087'
p340
aS'-122.231183987,49.2491189358'
p341
aS'-122.225453955,49.2490523548'
p342
aS'-122.221743048,49.2490694449'
p343
aS'-122.219902046,49.24907799'
p344
aS'-122.217374466,49.2490519987'
p345
aS'-122.214529277,49.2490865358'
p346
aS'-122.203732297,49.2493318552'
p347
aS'-122.204013246,49.2339382883'
p348
aS'-122.204083854,49.2308285274'
p349
aS'-122.203711958,49.199164436'
p350
asg131
(lp351
sg133
S'NDP'
p352
sg135
S'79'
p353
sg137
S'Abbotsford-Mission'
p354
sg139
S'65'
p355
sg141
(lp356
sbsS'<VotingArea.VotingArea object at 0x17778d0>'
p357
g2
(g3
g4
Ntp358
Rp359
(dp360
g8
I0
sg9
(lp361
sg11
g12
sg13
S'NDP'
p362
sg15
(lp363
S'-121.980740209,49.2462787064'
p364
aS'-121.98075041,49.2449495637'
p365
aS'-121.98095299,49.2449225032'
p366
aS'-121.982791742,49.244675759'
p367
aS'-121.987448285,49.2442712839'
p368
aS'-121.9898559,49.2439113145'
p369
aS'-121.991981294,49.2435232173'
p370
aS'-121.99321557,49.2433658423'
p371
aS'-121.994878325,49.2430827806'
p372
aS'-121.995730988,49.2427844094'
p373
aS'-121.997494211,49.242115743'
p374
aS'-121.997953776,49.2419238308'
p375
aS'-121.998924693,49.2415004838'
p376
aS'-121.99979516,49.2409062329'
p377
aS'-122.000031543,49.2406804954'
p378
aS'-122.000971809,49.2397818197'
p379
aS'-122.00139021,49.2393723598'
p380
aS'-122.003038963,49.2377580177'
p381
aS'-122.005265958,49.2356274004'
p382
aS'-122.007661832,49.2333508025'
p383
aS'-122.008344836,49.2326597043'
p384
aS'-122.008459164,49.2325781684'
p385
aS'-122.008850645,49.2323207431'
p386
aS'-122.008960362,49.2322488204'
p387
aS'-122.009385715,49.2319949544'
p388
aS'-122.010146606,49.2315844261'
p389
aS'-122.01076612,49.2313056376'
p390
aS'-122.01090146,49.2312447525'
p391
aS'-122.012014979,49.2307939899'
p392
aS'-122.013022464,49.2304254756'
p393
aS'-122.013896704,49.2300747646'
p394
aS'-122.014702025,49.2296407367'
p395
aS'-122.015119797,49.2291458239'
p396
aS'-122.015599711,49.22846612'
p397
aS'-122.015888806,49.2277864161'
p398
aS'-122.015904481,49.2271035073'
p399
aS'-122.015715349,49.2264405378'
p400
aS'-122.015176873,49.2256817908'
p401
aS'-122.01473626,49.22519934'
p402
aS'-122.014046309,49.2245260451'
p403
aS'-122.01251525,49.2231210626'
p404
aS'-122.011861806,49.2222540752'
p405
aS'-122.011637389,49.221900871'
p406
aS'-122.011225659,49.2212973622'
p407
aS'-122.011033737,49.2206247793'
p408
aS'-122.011139048,49.2201063666'
p409
aS'-122.011337492,49.2195605389'
p410
aS'-122.011721189,49.2188843956'
p411
aS'-122.012120807,49.2183449758'
p412
aS'-122.013135602,49.2170617634'
p413
aS'-122.009069628,49.2169232589'
p414
aS'-122.009300968,49.2094636059'
p415
aS'-122.009321653,49.2088034854'
p416
aS'-122.010731709,49.2093753053'
p417
aS'-122.010991166,49.209481765'
p418
aS'-122.012768924,49.2101917332'
p419
aS'-122.013585602,49.2104245917'
p420
aS'-122.014222342,49.2105253542'
p421
aS'-122.014792665,49.2105029234'
p422
aS'-122.015411059,49.2103765244'
p423
aS'-122.015675161,49.2103006854'
p424
aS'-122.01650596,49.2098200149'
p425
aS'-122.01794429,49.2089850718'
p426
aS'-122.019243135,49.2079681864'
p427
aS'-122.020061875,49.2071211377'
p428
aS'-122.020933121,49.2062958085'
p429
aS'-122.021955146,49.2052411819'
p430
aS'-122.023062247,49.2043581719'
p431
aS'-122.023762061,49.2039052735'
p432
aS'-122.024207468,49.2036019164'
p433
aS'-122.024586217,49.2034228224'
p434
aS'-122.025187936,49.2030920494'
p435
aS'-122.025624816,49.2029848783'
p436
aS'-122.026147419,49.2029215004'
p437
aS'-122.02642481,49.2028645326'
p438
aS'-122.026844073,49.2027943901'
p439
aS'-122.027518119,49.2025896595'
p440
aS'-122.028172743,49.2023607184'
p441
aS'-122.028820149,49.2021769948'
p442
aS'-122.029422813,49.2018978501'
p443
aS'-122.031067286,49.2010650437'
p444
aS'-122.033468776,49.2003568557'
p445
aS'-122.036838823,49.1996251678'
p446
aS'-122.038365543,49.1993552799'
p447
aS'-122.038324549,49.2009877807'
p448
aS'-122.038340324,49.2014168232'
p449
aS'-122.038343266,49.2020990198'
p450
aS'-122.038703284,49.2057763284'
p451
aS'-122.038697129,49.206745147'
p452
aS'-122.027732177,49.2067184429'
p453
aS'-122.027747682,49.2121350675'
p454
aS'-122.027115628,49.21213934'
p455
aS'-122.026319807,49.2120108052'
p456
aS'-122.026136762,49.2147748391'
p457
aS'-122.02617311,49.2266239047'
p458
aS'-122.026953305,49.2271886042'
p459
aS'-122.027703173,49.227762204'
p460
aS'-122.028331888,49.2282183078'
p461
aS'-122.02948538,49.2287972488'
p462
aS'-122.030302718,49.2293758333'
p463
aS'-122.030944598,49.2297721199'
p464
aS'-122.03196353,49.2304172869'
p465
aS'-122.032991015,49.2307573167'
p466
aS'-122.033662515,49.2309905308'
p467
aS'-122.034638753,49.23124226'
p468
aS'-122.035553855,49.2313487197'
p469
aS'-122.036546609,49.2314879364'
p470
aS'-122.037178771,49.2315961759'
p471
aS'-122.038212007,49.2316873253'
p472
aS'-122.039328268,49.2318233375'
p473
aS'-122.040627871,49.231933358'
p474
aS'-122.042232614,49.232005992'
p475
aS'-122.043814178,49.2320376812'
p476
aS'-122.044806879,49.2320647411'
p477
aS'-122.045419967,49.2321398678'
p478
aS'-122.046447801,49.2323018717'
p479
aS'-122.048164295,49.2326130612'
p480
aS'-122.050156219,49.2330438852'
p481
aS'-122.052600384,49.2337488688'
p482
aS'-122.053680874,49.2340661111'
p483
aS'-122.058879719,49.2356715509'
p484
aS'-122.063648827,49.2365378266'
p485
aS'-122.067838126,49.2376747015'
p486
aS'-122.069886764,49.2382187496'
p487
aS'-122.072450629,49.2388995214'
p488
aS'-122.074874746,49.2392552182'
p489
aS'-122.076752778,49.2404116761'
p490
aS'-122.077203093,49.2417379714'
p491
aS'-122.076612603,49.2431468705'
p492
aS'-122.073963236,49.2454476804'
p493
aS'-122.071737857,49.2477951339'
p494
aS'-122.069551239,49.250063187'
p495
aS'-122.067554135,49.252601128'
p496
aS'-122.064449392,49.2573501545'
p497
aS'-122.06337742,49.2603075253'
p498
aS'-122.062292496,49.2641575194'
p499
aS'-122.061517921,49.2681431686'
p500
aS'-122.099830732,49.268278113'
p501
aS'-122.099100264,49.2692494235'
p502
aS'-122.098955986,49.2707234803'
p503
aS'-122.099007009,49.2718482497'
p504
aS'-122.098902721,49.2729089298'
p505
aS'-122.097743118,49.2761824751'
p506
aS'-122.098756711,49.2770174172'
p507
aS'-122.098584604,49.2778982911'
p508
aS'-122.099392847,49.2788030202'
p509
aS'-122.100318109,49.2805188362'
p510
aS'-122.099858446,49.2818013371'
p511
aS'-122.098708165,49.2830147634'
p512
aS'-122.098439592,49.2832479772'
p513
aS'-122.097269693,49.2838959933'
p514
aS'-122.09661196,49.2847814954'
p515
aS'-122.095608906,49.2854038743'
p516
aS'-122.094991376,49.286379458'
p517
aS'-122.094332237,49.2866806784'
p518
aS'-122.093548849,49.2868085013'
p519
aS'-122.092161743,49.2879948678'
p520
aS'-122.091895723,49.2889362695'
p521
aS'-122.09238422,49.2897683645'
p522
aS'-122.092666019,49.2900763492'
p523
aS'-122.09313901,49.2901518324'
p524
aS'-122.093949837,49.2905356567'
p525
aS'-122.094578152,49.2912687687'
p526
aS'-122.094782697,49.2921336196'
p527
aS'-122.095451278,49.2930476059'
p528
aS'-122.095821733,49.2936617965'
p529
aS'-122.095566698,49.2945405341'
p530
aS'-122.095492163,49.2946576749'
p531
aS'-122.094861908,49.2955431774'
p532
aS'-122.094225195,49.296464641'
p533
aS'-122.094385264,49.2975181992'
p534
aS'-122.094388252,49.2989392042'
p535
aS'-122.094010629,49.299718603'
p536
aS'-122.093248662,49.3003071579'
p537
aS'-122.092426507,49.3010922526'
p538
aS'-122.09170679,49.3021842651'
p539
aS'-122.090954556,49.3026275504'
p540
aS'-122.090227739,49.3032527789'
p541
aS'-122.089857481,49.3039873143'
p542
aS'-122.089810575,49.3049486559'
p543
aS'-122.090519824,49.3059520115'
p544
aS'-122.090329479,49.3072448376'
p545
aS'-122.085238455,49.307270473'
p546
aS'-122.085697247,49.3069952446'
p547
aS'-122.086471042,49.3068396497'
p548
aS'-122.086776417,49.3066801381'
p549
aS'-122.087167598,49.3063593355'
p550
aS'-122.087992991,49.304854658'
p551
aS'-122.087959396,49.3044494706'
p552
aS'-122.087828912,49.3040798881'
p553
aS'-122.087409858,49.3036625952'
p554
aS'-122.087209011,49.303364223'
p555
aS'-122.087105187,49.3030217008'
p556
aS'-122.086686711,49.3026136642'
p557
aS'-122.086455666,49.3024498802'
p558
aS'-122.086239942,49.3022230749'
p559
aS'-122.086106589,49.3019880808'
p560
aS'-122.08604183,49.3017626992'
p561
aS'-122.085950436,49.3007547157'
p562
aS'-122.085817312,49.3005286222'
p563
aS'-122.085225339,49.2997955106'
p564
aS'-122.08498835,49.2992446972'
p565
aS'-122.084995271,49.2988580242'
p566
aS'-122.085088557,49.2978037534'
p567
aS'-122.085116915,49.2974825947'
p568
aS'-122.084914238,49.2973013639'
p569
aS'-122.084422236,49.2971172848'
p570
aS'-122.08289086,49.2966284247'
p571
aS'-122.082372384,49.2963994828'
p572
aS'-122.081475106,49.2958436855'
p573
aS'-122.081308958,49.2958874801'
p574
aS'-122.0803515,49.2963656579'
p575
aS'-122.07968625,49.2966391059'
p576
aS'-122.079061939,49.2969310695'
p577
aS'-122.07856377,49.2970888004'
p578
aS'-122.078008971,49.2973184544'
p579
aS'-122.077277751,49.2974473452'
p580
aS'-122.076851125,49.2974708447'
p581
aS'-122.07598185,49.2976079246'
p582
aS'-122.075068521,49.2978973954'
p583
aS'-122.074336945,49.2980537022'
p584
aS'-122.072970482,49.2983032951'
p585
aS'-122.071715496,49.298473132'
p586
aS'-122.07146663,49.2985432743'
p587
aS'-122.071191618,49.2985411375'
p588
aS'-122.070915115,49.2986109244'
p589
aS'-122.070281237,49.2986775059'
p590
aS'-122.069194835,49.2986689608'
p591
aS'-122.068325392,49.2988238434'
p592
aS'-122.067550671,49.2990513608'
p593
aS'-122.066862662,49.2990727243'
p594
aS'-122.066189589,49.2990225209'
p595
aS'-122.065668698,49.2989281666'
p596
aS'-122.064286256,49.2985571598'
p597
aS'-122.063544953,49.2984884422'
p598
aS'-122.06246975,49.298614485'
p599
aS'-122.061943536,49.2987992755'
p600
aS'-122.061377202,49.2989114327'
p601
aS'-122.060756949,49.2989965287'
p602
aS'-122.060330787,49.29897481'
p603
aS'-122.059923262,49.2987198757'
p604
aS'-122.059577001,49.2988338126'
p605
aS'-122.058446841,49.2989687566'
p606
aS'-122.05835076,49.298940985'
p607
aS'-122.057471339,49.2989157051'
p608
aS'-122.055137941,49.2986536508'
p609
aS'-122.054381489,49.2986475971'
p610
aS'-122.054229308,49.2986732336'
p611
aS'-122.05399344,49.2988063966'
p612
aS'-122.05333004,49.2989627037'
p613
aS'-122.053038346,49.2991044126'
p614
aS'-122.052800275,49.2993273017'
p615
aS'-122.052544354,49.2997570567'
p616
aS'-122.05254119,49.2999187043'
p617
aS'-122.052607774,49.300036202'
p618
aS'-122.05278457,49.3001547669'
p619
aS'-122.053208546,49.3002662116'
p620
aS'-122.053688491,49.3003420507'
p621
aS'-122.054248196,49.3005713486'
p622
aS'-122.054655715,49.3008447968'
p623
aS'-122.05493623,49.3012788247'
p624
aS'-122.055107905,49.3017612754'
p625
aS'-122.055131856,49.3018289255'
p626
aS'-122.055166984,49.3021532888'
p627
aS'-122.055050134,49.3025121899'
p628
aS'-122.054834398,49.3029960646'
p629
aS'-122.054692442,49.3032467253'
p630
aS'-122.054483331,49.3033798892'
p631
aS'-122.054167003,49.3033773971'
p632
aS'-122.053653046,49.3029234299'
p633
aS'-122.053386157,49.302489402'
p634
aS'-122.053210848,49.302298914'
p635
aS'-122.053034232,49.302207765'
p636
aS'-122.052896716,49.3022066967'
p637
aS'-122.052757693,49.3022775515'
p638
aS'-122.052332814,49.3028945896'
p639
aS'-122.052151195,49.3030551692'
p640
aS'-122.051524733,49.3034365012'
p641
aS'-122.050858268,49.3037551681'
p642
aS'-122.0504141,49.3040432144'
p643
aS'-122.049449524,49.3037818726'
p644
aS'-122.048120887,49.3034222593'
p645
aS'-122.045785238,49.3026051195'
p646
aS'-122.044391826,49.302117684'
p647
aS'-122.042304747,49.3010694655'
p648
aS'-122.040970039,49.3002683481'
p649
aS'-122.039924725,49.2991474951'
p650
aS'-122.038911284,49.2981761844'
p651
aS'-122.038249601,49.2975993793'
p652
aS'-122.033346506,49.2933228345'
p653
aS'-122.029583707,49.2911231435'
p654
aS'-122.025199924,49.2882508687'
p655
aS'-122.020540708,49.2852660825'
p656
aS'-122.016496048,49.2833042335'
p657
aS'-122.015788503,49.2820331267'
p658
aS'-122.014665506,49.2800160906'
p659
aS'-122.012636992,49.2781674667'
p660
aS'-122.011760791,49.2763170624'
p661
aS'-122.009468042,49.2746197607'
p662
aS'-122.004746231,49.2722705276'
p663
aS'-122.001245783,49.2698807043'
p664
aS'-122.001367671,49.2656810667'
p665
aS'-122.002341972,49.2511779867'
p666
aS'-122.002420885,49.2500030143'
p667
aS'-122.00270824,49.2464585128'
p668
aS'-122.000000469,49.2464645657'
p669
aS'-121.999998288,49.2464645659'
p670
aS'-121.996811198,49.2464318089'
p671
aS'-121.985593295,49.2463164482'
p672
aS'-121.981061831,49.2462698056'
p673
aS'-121.980740209,49.2462787064'
p674
asg131
(lp675
sg133
S'LIB'
p676
sg135
S'81'
p677
sg137
S'Abbotsford-Mission'
p678
sg139
S'43'
p679
sg141
(lp680
sbsS'<VotingArea.VotingArea object at 0x176b350>'
p681
g2
(g3
g4
Ntp682
Rp683
(dp684
g8
I0
sg9
(lp685
sg11
g12
sg13
S'LIB'
p686
sg15
(lp687
S'-122.083572214,49.3147774812'
p688
aS'-122.083532669,49.3146870435'
p689
aS'-122.083759305,49.3143470133'
p690
aS'-122.083746535,49.3142750913'
p691
aS'-122.083931216,49.3139617652'
p692
aS'-122.084081754,49.3132792128'
p693
aS'-122.08416496,49.3117417782'
p694
aS'-122.084545289,49.3097838465'
p695
aS'-122.084764964,49.3090749468'
p696
aS'-122.084844344,49.3084817634'
p697
aS'-122.085054512,49.3075389365'
p698
aS'-122.085238455,49.307270473'
p699
aS'-122.090329479,49.3072448376'
p700
aS'-122.090519824,49.3059520115'
p701
aS'-122.089810575,49.3049486559'
p702
aS'-122.089857481,49.3039873143'
p703
aS'-122.090227739,49.3032527789'
p704
aS'-122.090954556,49.3026275504'
p705
aS'-122.09170679,49.3021842651'
p706
aS'-122.092426507,49.3010922526'
p707
aS'-122.093248662,49.3003071579'
p708
aS'-122.094010629,49.299718603'
p709
aS'-122.094388252,49.2989392042'
p710
aS'-122.094385264,49.2975181992'
p711
aS'-122.094225195,49.296464641'
p712
aS'-122.094861908,49.2955431774'
p713
aS'-122.095492163,49.2946576749'
p714
aS'-122.095566698,49.2945405341'
p715
aS'-122.095821733,49.2936617965'
p716
aS'-122.095451278,49.2930476059'
p717
aS'-122.094782697,49.2921336196'
p718
aS'-122.094578152,49.2912687687'
p719
aS'-122.093949837,49.2905356567'
p720
aS'-122.09313901,49.2901518324'
p721
aS'-122.092666019,49.2900763492'
p722
aS'-122.09238422,49.2897683645'
p723
aS'-122.091895723,49.2889362695'
p724
aS'-122.092161743,49.2879948678'
p725
aS'-122.093548849,49.2868085013'
p726
aS'-122.094332237,49.2866806784'
p727
aS'-122.094991376,49.286379458'
p728
aS'-122.095608906,49.2854038743'
p729
aS'-122.09661196,49.2847814954'
p730
aS'-122.097269693,49.2838959933'
p731
aS'-122.098439592,49.2832479772'
p732
aS'-122.098708165,49.2830147634'
p733
aS'-122.099858446,49.2818013371'
p734
aS'-122.100318109,49.2805188362'
p735
aS'-122.099392847,49.2788030202'
p736
aS'-122.098584604,49.2778982911'
p737
aS'-122.098756711,49.2770174172'
p738
aS'-122.097743118,49.2761824751'
p739
aS'-122.098902721,49.2729089298'
p740
aS'-122.099007009,49.2718482497'
p741
aS'-122.098955986,49.2707234803'
p742
aS'-122.099100264,49.2692494235'
p743
aS'-122.099830732,49.268278113'
p744
aS'-122.100109868,49.2679078185'
p745
aS'-122.100815559,49.2664747081'
p746
aS'-122.101468151,49.2653645366'
p747
aS'-122.102034421,49.2637665737'
p748
aS'-122.102739544,49.2620813776'
p749
aS'-122.10399989,49.2614066582'
p750
aS'-122.105537582,49.2603933334'
p751
aS'-122.105734449,49.2594416058'
p752
aS'-122.105536264,49.2586212614'
p753
aS'-122.105105504,49.2569364216'
p754
aS'-122.105870321,49.2560697902'
p755
aS'-122.106276309,49.2552814899'
p756
aS'-122.106155009,49.2546683682'
p757
aS'-122.106464903,49.254211909'
p758
aS'-122.108587186,49.2535176067'
p759
aS'-122.108939684,49.2529714227'
p760
aS'-122.109068352,49.2520994504'
p761
aS'-122.109945614,49.2512456368'
p762
aS'-122.111121273,49.2507695946'
p763
aS'-122.112606459,49.2505545391'
p764
aS'-122.114257835,49.2503028098'
p765
aS'-122.114582799,49.2499556592'
p766
aS'-122.115223566,49.248626516'
p767
aS'-122.116960766,49.2476242284'
p768
aS'-122.11837087,49.2468747386'
p769
aS'-122.119121661,49.2460668553'
p770
aS'-122.119855258,49.2456520549'
p771
aS'-122.121039619,49.244691781'
p772
aS'-122.122125951,49.2441053635'
p773
aS'-122.123024037,49.244009585'
p774
aS'-122.123586575,49.2439860852'
p775
aS'-122.123960163,49.2438539899'
p776
aS'-122.124119453,49.2422706258'
p777
aS'-122.124713011,49.2412209826'
p778
aS'-122.125448104,49.2404682882'
p779
aS'-122.125986503,49.2398021147'
p780
aS'-122.127154869,49.2392780053'
p781
aS'-122.128706391,49.2388724622'
p782
aS'-122.13033134,49.238057102'
p783
aS'-122.131609762,49.2368440318'
p784
aS'-122.132662308,49.2358075635'
p785
aS'-122.132702042,49.2356765356'
p786
aS'-122.133526818,49.2348245026'
p787
aS'-122.135058226,49.2338571082'
p788
aS'-122.135448828,49.2333931721'
p789
aS'-122.135337154,49.2330189611'
p790
aS'-122.134931134,49.2324072634'
p791
aS'-122.134775295,49.2316175397'
p792
aS'-122.134992594,49.2310279168'
p793
aS'-122.135404737,49.2306494332'
p794
aS'-122.135519883,49.2301940418'
p795
aS'-122.135434897,49.2295438904'
p796
aS'-122.135681991,49.2291771561'
p797
aS'-122.136396448,49.2287160686'
p798
aS'-122.136649919,49.2282674429'
p799
aS'-122.135974845,49.226529195'
p800
aS'-122.135993038,49.2260008133'
p801
aS'-122.136345406,49.2257697354'
p802
aS'-122.137606875,49.2259840794'
p803
aS'-122.139283892,49.22613825'
p804
aS'-122.140177217,49.2260823493'
p805
aS'-122.141298331,49.2256055954'
p806
aS'-122.141484473,49.2252442021'
p807
aS'-122.141330649,49.2242472559'
p808
aS'-122.141420363,49.2237242145'
p809
aS'-122.142292852,49.223252089'
p810
aS'-122.143596073,49.2225342876'
p811
aS'-122.144275763,49.2216085516'
p812
aS'-122.144396775,49.2210602315'
p813
aS'-122.143859208,49.2204538742'
p814
aS'-122.143710265,49.2196990429'
p815
aS'-122.144747362,49.219032157'
p816
aS'-122.145883387,49.2187127784'
p817
aS'-122.146686042,49.2183246813'
p818
aS'-122.146701822,49.2178336846'
p819
aS'-122.147272061,49.2170564225'
p820
aS'-122.148058638,49.2159857736'
p821
aS'-122.148343049,49.2139131925'
p822
aS'-122.147960527,49.2134303851'
p823
aS'-122.147416627,49.2130454927'
p824
aS'-122.147163024,49.212624995'
p825
aS'-122.147893915,49.2118933074'
p826
aS'-122.148551746,49.2115187408'
p827
aS'-122.149037018,49.2112249971'
p828
aS'-122.149125286,49.2110017528'
p829
aS'-122.148975497,49.2106980394'
p830
aS'-122.148666171,49.2103405634'
p831
aS'-122.148839378,49.2099108083'
p832
aS'-122.149481866,49.2096793743'
p833
aS'-122.149832094,49.2094924465'
p834
aS'-122.150301735,49.2088579612'
p835
aS'-122.150484258,49.2083847677'
p836
aS'-122.151204038,49.2074301918'
p837
aS'-122.15104355,49.2071086761'
p838
aS'-122.151153732,49.2067782596'
p839
aS'-122.151290738,49.206250234'
p840
aS'-122.151307132,49.2056883832'
p841
aS'-122.150961544,49.2052319243'
p842
aS'-122.15072402,49.2048028811'
p843
aS'-122.150550263,49.2043378772'
p844
aS'-122.150673733,49.2039444388'
p845
aS'-122.15096237,49.2034356406'
p846
aS'-122.151250139,49.2029984083'
p847
aS'-122.151394668,49.2026412871'
p848
aS'-122.151505343,49.2022400165'
p849
aS'-122.151433121,49.201827352'
p850
aS'-122.151323693,49.2014481558'
p851
aS'-122.151047283,49.201047241'
p852
aS'-122.150627747,49.2007880352'
p853
aS'-122.150308704,49.200595767'
p854
aS'-122.150160654,49.2004700801'
p855
aS'-122.150176014,49.2002283207'
p856
aS'-122.150366117,49.199880814'
p857
aS'-122.150926112,49.1992716084'
p858
aS'-122.151204641,49.1988436334'
p859
aS'-122.151286988,49.1984608768'
p860
aS'-122.151388288,49.1978662692'
p861
aS'-122.151757985,49.1970747654'
p862
aS'-122.152017507,49.1965923138'
p863
aS'-122.15247566,49.1960568117'
p864
aS'-122.153134471,49.1954768018'
p865
aS'-122.153905065,49.194978685'
p866
aS'-122.154284275,49.1945029989'
p867
aS'-122.154747477,49.1938400296'
p868
aS'-122.155088743,49.1933372836'
p869
aS'-122.155497242,49.1929328078'
p870
aS'-122.155926218,49.1926522393'
p871
aS'-122.156731654,49.1923246708'
p872
aS'-122.157293762,49.1919967464'
p873
aS'-122.157824072,49.191695882'
p874
aS'-122.158081375,49.1914338274'
p875
aS'-122.158172368,49.1911286913'
p876
aS'-122.158402717,49.1907868803'
p877
aS'-122.158770253,49.1905853548'
p878
aS'-122.159015172,49.1903147551'
p879
aS'-122.159006828,49.1898864239'
p880
aS'-122.158841083,49.1893612468'
p881
aS'-122.156981813,49.1883657246'
p882
aS'-122.15581278,49.1876689299'
p883
aS'-122.154980481,49.1868578435'
p884
aS'-122.154411634,49.1860499601'
p885
aS'-122.15402801,49.1853877033'
p886
aS'-122.153507765,49.1845346017'
p887
aS'-122.153016399,49.1838538295'
p888
aS'-122.152222147,49.1828903517'
p889
aS'-122.152040857,49.1821753989'
p890
aS'-122.152185553,49.1815088686'
p891
aS'-122.152213206,49.1807971201'
p892
aS'-122.151858324,49.1801455445'
p893
aS'-122.1513462,49.1795277934'
p894
aS'-122.150606873,49.1787822197'
p895
aS'-122.149776796,49.177996768'
p896
aS'-122.149339298,49.176833189'
p897
aS'-122.149202624,49.1760459575'
p898
aS'-122.149163495,49.1759427025'
p899
aS'-122.149078997,49.1756970258'
p900
aS'-122.148889349,49.1751697126'
p901
aS'-122.148667941,49.1748378723'
p902
aS'-122.147581872,49.173959847'
p903
aS'-122.146516611,49.1732897561'
p904
aS'-122.146358984,49.1731373657'
p905
aS'-122.145840859,49.172623226'
p906
aS'-122.145196055,49.172053543'
p907
aS'-122.144926294,49.1716747027'
p908
aS'-122.145090298,49.171352476'
p909
aS'-122.145708776,49.1711751611'
p910
aS'-122.146744373,49.170838692'
p911
aS'-122.148085641,49.1704292314'
p912
aS'-122.149753228,49.1701621924'
p913
aS'-122.151868973,49.1698620401'
p914
aS'-122.153807148,49.1697395582'
p915
aS'-122.156439228,49.1692403733'
p916
aS'-122.157614527,49.1680426129'
p917
aS'-122.157589447,49.1669915464'
p918
aS'-122.158159146,49.1662007541'
p919
aS'-122.159065872,49.1657496358'
p920
aS'-122.160299984,49.1657005004'
p921
aS'-122.161597473,49.1661701337'
p922
aS'-122.162778917,49.1664410899'
p923
aS'-122.164458727,49.1661623006'
p924
aS'-122.166648156,49.1662684044'
p925
aS'-122.169757965,49.1667490752'
p926
aS'-122.171848652,49.16731413'
p927
aS'-122.173306975,49.1673582806'
p928
aS'-122.176049335,49.1669502446'
p929
aS'-122.179859102,49.1671378841'
p930
aS'-122.182583101,49.1676064493'
p931
aS'-122.184202778,49.1680842712'
p932
aS'-122.186487561,49.1680237423'
p933
aS'-122.188285866,49.1674558387'
p934
aS'-122.190262212,49.1660116903'
p935
aS'-122.192091278,49.1647512655'
p936
aS'-122.193613907,49.1633772588'
p937
aS'-122.193836546,49.1629848891'
p938
aS'-122.195009538,49.1614442507'
p939
aS'-122.195254902,49.1596611408'
p940
aS'-122.194961392,49.1575501065'
p941
aS'-122.194582589,49.1565994469'
p942
aS'-122.193017766,49.154911759'
p943
aS'-122.191540709,49.1536541813'
p944
aS'-122.189755875,49.1525361776'
p945
aS'-122.1879076,49.1515054057'
p946
aS'-122.185825502,49.1504596797'
p947
aS'-122.183985336,49.1496428959'
p948
aS'-122.182124719,49.1489592752'
p949
aS'-122.180313887,49.1483066317'
p950
aS'-122.17983681,49.1472794206'
p951
aS'-122.180187812,49.1458399006'
p952
aS'-122.181885637,49.1438638107'
p953
aS'-122.182573075,49.1414714945'
p954
aS'-122.182718734,49.1367278093'
p955
aS'-122.190108361,49.1334140297'
p956
aS'-122.193002108,49.1321076737'
p957
aS'-122.199408466,49.1309084894'
p958
aS'-122.203766446,49.1300689187'
p959
aS'-122.209671794,49.1295761418'
p960
aS'-122.216822782,49.1304787347'
p961
aS'-122.221238696,49.1313094049'
p962
aS'-122.222966317,49.1321240525'
p963
aS'-122.223793339,49.132513574'
p964
aS'-122.227711899,49.1337462272'
p965
aS'-122.231152744,49.1348051269'
p966
aS'-122.236889162,49.1371582763'
p967
aS'-122.240897322,49.1391934715'
p968
aS'-122.246212984,49.1420098461'
p969
aS'-122.248873279,49.1436868525'
p970
aS'-122.249263739,49.1438773401'
p971
aS'-122.246426274,49.1455885279'
p972
aS'-122.245649264,49.1457918338'
p973
aS'-122.243387756,49.1456515488'
p974
aS'-122.241113888,49.1449266263'
p975
aS'-122.238942143,49.1437865466'
p976
aS'-122.236173082,49.1438883778'
p977
aS'-122.235677186,49.1439068926'
p978
aS'-122.23524632,49.1439222031'
p979
aS'-122.234563842,49.1439460581'
p980
aS'-122.230947464,49.1439610129'
p981
aS'-122.228746946,49.1441525687'
p982
aS'-122.228498254,49.1442390899'
p983
aS'-122.227485835,49.1445901572'
p984
aS'-122.226168703,49.1454201152'
p985
aS'-122.225088629,49.1464697575'
p986
aS'-122.22491324,49.1474834381'
p987
aS'-122.225022801,49.1478213319'
p988
aS'-122.225620064,49.1496649712'
p989
aS'-122.225549456,49.1509253965'
p990
aS'-122.225550533,49.1509300252'
p991
aS'-122.225534232,49.1510930976'
p992
aS'-122.225524485,49.1514395365'
p993
aS'-122.225658502,49.1514808378'
p994
aS'-122.225023636,49.1516570837'
p995
aS'-122.223543792,49.1520473179'
p996
aS'-122.222996435,49.1521915185'
p997
aS'-122.22258871,49.1522965543'
p998
aS'-122.219894001,49.1530374989'
p999
aS'-122.213343418,49.1548921756'
p1000
aS'-122.209751679,49.1557983292'
p1001
aS'-122.209374769,49.1559055009'
p1002
aS'-122.207967242,49.1563057034'
p1003
aS'-122.206364075,49.1567974119'
p1004
aS'-122.205656621,49.1571645022'
p1005
aS'-122.205696329,49.1598007135'
p1006
aS'-122.205665261,49.1617525926'
p1007
aS'-122.205662546,49.1619405876'
p1008
aS'-122.205050535,49.1761495686'
p1009
aS'-122.203639432,49.1761577581'
p1010
aS'-122.20367367,49.1788929522'
p1011
aS'-122.203711958,49.199164436'
p1012
aS'-122.204083854,49.2308285274'
p1013
aS'-122.204013246,49.2339382883'
p1014
aS'-122.203732297,49.2493318552'
p1015
aS'-122.202785652,49.3022248557'
p1016
aS'-122.202044287,49.3028661056'
p1017
aS'-122.200413851,49.3040969789'
p1018
aS'-122.198624709,49.3056119813'
p1019
aS'-122.197453708,49.3078141653'
p1020
aS'-122.196426116,49.3099219954'
p1021
aS'-122.195764404,49.3116979838'
p1022
aS'-122.193125906,49.3149654765'
p1023
aS'-122.18945103,49.3168343952'
p1024
aS'-122.185151666,49.3184419714'
p1025
aS'-122.181922887,49.3196949198'
p1026
aS'-122.176381796,49.3218461883'
p1027
aS'-122.170542839,49.323949745'
p1028
aS'-122.167854432,49.3248167324'
p1029
aS'-122.16715649,49.3245625113'
p1030
aS'-122.163418569,49.3232027471'
p1031
aS'-122.157915255,49.3210820993'
p1032
aS'-122.155773704,49.3196347466'
p1033
aS'-122.151028634,49.3171979248'
p1034
aS'-122.149112065,49.3164398896'
p1035
aS'-122.145696189,49.3133447262'
p1036
aS'-122.139796396,49.3127964051'
p1037
aS'-122.134893791,49.3136509315'
p1038
aS'-122.134833981,49.3136616131'
p1039
aS'-122.132008987,49.3163426872'
p1040
aS'-122.131256612,49.3186296107'
p1041
aS'-122.127305944,49.3213587521'
p1042
aS'-122.126407887,49.3223503578'
p1043
aS'-122.126507786,49.3237005086'
p1044
aS'-122.126861646,49.3247017276'
p1045
aS'-122.127173705,49.3249559491'
p1046
aS'-122.127619268,49.3254540664'
p1047
aS'-122.127576622,49.325525633'
p1048
aS'-122.127615578,49.3256609329'
p1049
aS'-122.127641557,49.3257328553'
p1050
aS'-122.127749778,49.3258507086'
p1051
aS'-122.128103243,49.326078226'
p1052
aS'-122.128445237,49.3262156622'
p1053
aS'-122.129098481,49.3266254783'
p1054
aS'-122.130036838,49.3272713577'
p1055
aS'-122.1303094,49.3274999436'
p1056
aS'-122.129856914,49.3288294428'
p1057
aS'-122.129420193,49.3292859013'
p1058
aS'-122.128771612,49.3299641811'
p1059
aS'-122.128709409,49.3299417505'
p1060
aS'-122.128571813,49.3299406822'
p1061
aS'-122.128187684,49.3298748122'
p1062
aS'-122.128050794,49.3298288818'
p1063
aS'-122.127669934,49.3295921066'
p1064
aS'-122.127642989,49.3295468884'
p1065
aS'-122.12701499,49.3292723715'
p1066
aS'-122.126246113,49.3291584346'
p1067
aS'-122.125297661,49.3291064518'
p1068
aS'-122.124569802,49.3290110293'
p1069
aS'-122.122828597,49.3286108267'
p1070
aS'-122.121582672,49.3282686599'
p1071
aS'-122.121227637,49.328104164'
p1072
aS'-122.120710363,49.327785497'
p1073
aS'-122.120190399,49.3276014182'
p1074
aS'-122.119600073,49.3275248665'
p1075
aS'-122.119008117,49.3275476547'
p1076
aS'-122.118760973,49.3275006552'
p1077
aS'-122.118420467,49.3273180008'
p1078
aS'-122.117997134,49.3271349894'
p1079
aS'-122.117613126,49.3270420602'
p1080
aS'-122.117020534,49.3270826495'
p1081
aS'-122.116249894,49.3271036568'
p1082
aS'-122.114865199,49.3267960279'
p1083
aS'-122.114234322,49.3266835152'
p1084
aS'-122.113779707,49.3266799546'
p1085
aS'-122.112097282,49.3268829043'
p1086
aS'-122.110568808,49.3269430773'
p1087
aS'-122.110388245,49.327031734'
p1088
aS'-122.110250027,49.3270577262'
p1089
aS'-122.108795287,49.3268394656'
p1090
aS'-122.10818934,49.3268618977'
p1091
aS'-122.106168069,49.3267383468'
p1092
aS'-122.104189609,49.3265699348'
p1093
aS'-122.102967508,49.3264075743'
p1094
aS'-122.101884283,49.3262014201'
p1095
aS'-122.101019148,49.3261045737'
p1096
aS'-122.10038619,49.3260995894'
p1097
aS'-122.099766044,49.3261220203'
p1098
aS'-122.098924022,49.326277259'
p1099
aS'-122.097942173,49.3265215109'
p1100
aS'-122.097833292,49.3264577779'
p1101
aS'-122.09772683,49.3262498433'
p1102
aS'-122.09757442,49.3255651546'
p1103
aS'-122.097292489,49.3251941481'
p1104
aS'-122.096952929,49.3249395709'
p1105
aS'-122.096775736,49.3248480655'
p1106
aS'-122.096146728,49.3246184113'
p1107
aS'-122.093747317,49.3241316879'
p1108
aS'-122.09287179,49.3238550356'
p1109
aS'-122.091246186,49.3232038154'
p1110
aS'-122.090686502,49.3229474577'
p1111
aS'-122.090344445,49.3228548845'
p1112
aS'-122.089891583,49.3227612425'
p1113
aS'-122.089438207,49.3227398793'
p1114
aS'-122.088598008,49.3227779766'
p1115
aS'-122.088217982,49.3224781808'
p1116
aS'-122.087874535,49.3224575295'
p1117
aS'-122.086717994,49.3224753324'
p1118
aS'-122.086581723,49.3224294016'
p1119
aS'-122.086472867,49.3223564114'
p1120
aS'-122.086383078,49.3219960857'
p1121
aS'-122.086143686,49.3215624146'
p1122
aS'-122.085516517,49.321233422'
p1123
aS'-122.085546007,49.3211258942'
p1124
aS'-122.085727261,49.321010177'
p1125
aS'-122.085837943,49.3209660269'
p1126
aS'-122.085933997,49.3209670944'
p1127
aS'-122.086502057,49.3207826593'
p1128
aS'-122.086849061,49.3206053457'
p1129
aS'-122.086919525,49.3205070749'
p1130
aS'-122.086885918,49.3201200465'
p1131
aS'-122.086714629,49.3196867302'
p1132
aS'-122.086589526,49.3194624176'
p1133
aS'-122.086315392,49.3189728458'
p1134
aS'-122.085322644,49.3175977713'
p1135
aS'-122.084869091,49.3168205089'
p1136
aS'-122.084670575,49.3163871931'
p1137
aS'-122.084466303,49.3155401451'
p1138
aS'-122.084128065,49.3152225459'
p1139
aS'-122.083774309,49.3150128318'
p1140
aS'-122.083572214,49.3147774812'
p1141
asg131
(lp1142
sg133
S'NDP'
p1143
sg135
S'79'
p1144
sg137
S'Abbotsford-Mission'
p1145
sg139
S'36'
p1146
sg141
(lp1147
sbsS'<VotingArea.VotingArea object at 0x1783a90>'
p1148
g2
(g3
g4
Ntp1149
Rp1150
(dp1151
g8
I0
sg9
(lp1152
sg11
g12
sg13
S'LIB'
p1153
sg15
(lp1154
S'-122.203711958,49.199164436'
p1155
aS'-122.20367367,49.1788929522'
p1156
aS'-122.203639432,49.1761577581'
p1157
aS'-122.205050535,49.1761495686'
p1158
aS'-122.205662546,49.1619405876'
p1159
aS'-122.205665261,49.1617525926'
p1160
aS'-122.205696329,49.1598007135'
p1161
aS'-122.205656621,49.1571645022'
p1162
aS'-122.206364075,49.1567974119'
p1163
aS'-122.207967242,49.1563057034'
p1164
aS'-122.209374769,49.1559055009'
p1165
aS'-122.209751679,49.1557983292'
p1166
aS'-122.213343418,49.1548921756'
p1167
aS'-122.219894001,49.1530374989'
p1168
aS'-122.22258871,49.1522965543'
p1169
aS'-122.222996435,49.1521915185'
p1170
aS'-122.223739904,49.1539586063'
p1171
aS'-122.223980978,49.1545044349'
p1172
aS'-122.224377396,49.1554002623'
p1173
aS'-122.226878226,49.1570103312'
p1174
aS'-122.228125483,49.1578826589'
p1175
aS'-122.22942195,49.1592121584'
p1176
aS'-122.230125926,49.1607090032'
p1177
aS'-122.230125517,49.161806356'
p1178
aS'-122.229423765,49.161784993'
p1179
aS'-122.228608327,49.1611768556'
p1180
aS'-122.227692954,49.1597494419'
p1181
aS'-122.227329945,49.1592641429'
p1182
aS'-122.226639378,49.1594396763'
p1183
aS'-122.226636161,49.1607592062'
p1184
aS'-122.226467779,49.1613053903'
p1185
aS'-122.22632714,49.1620748196'
p1186
aS'-122.225952989,49.1628367712'
p1187
aS'-122.226281952,49.1635292938'
p1188
aS'-122.226091374,49.1652597077'
p1189
aS'-122.22640265,49.1659362077'
p1190
aS'-122.226884671,49.1671574669'
p1191
aS'-122.22753204,49.1680931722'
p1192
aS'-122.228214359,49.1686578716'
p1193
aS'-122.228758614,49.1706460675'
p1194
aS'-122.230115659,49.173650437'
p1195
aS'-122.232082389,49.1756849206'
p1196
aS'-122.23248747,49.1761403119'
p1197
aS'-122.235254105,49.1775118247'
p1198
aS'-122.237578115,49.1779921401'
p1199
aS'-122.23977058,49.1783446316'
p1200
aS'-122.242598394,49.1784528712'
p1201
aS'-122.248298625,49.1783923426'
p1202
aS'-122.249681564,49.1779996168'
p1203
aS'-122.251743517,49.1775997696'
p1204
aS'-122.252596125,49.177104145'
p1205
aS'-122.253400119,49.1764276453'
p1206
aS'-122.25378325,49.1764336983'
p1207
aS'-122.255361692,49.1764557737'
p1208
aS'-122.255861084,49.176463251'
p1209
aS'-122.255723898,49.1778279994'
p1210
aS'-122.255605901,49.1844669514'
p1211
aS'-122.247663216,49.1841137474'
p1212
aS'-122.247661865,49.1842999632'
p1213
aS'-122.24731266,49.1841151721'
p1214
aS'-122.24694276,49.1839303803'
p1215
aS'-122.241084785,49.1839755997'
p1216
aS'-122.237214627,49.1839282447'
p1217
aS'-122.236297196,49.1839136458'
p1218
aS'-122.231578351,49.1837776346'
p1219
aS'-122.231673262,49.1841653752'
p1220
aS'-122.231578223,49.1851616094'
p1221
aS'-122.231543969,49.1861998581'
p1222
aS'-122.23181627,49.1869326144'
p1223
aS'-122.232214584,49.1874674049'
p1224
aS'-122.232746642,49.1882614017'
p1225
aS'-122.233133022,49.1888691824'
p1226
aS'-122.233205003,49.1896720805'
p1227
aS'-122.232784769,49.190510584'
p1228
aS'-122.232470516,49.1911970532'
p1229
aS'-122.232652671,49.1919832163'
p1230
aS'-122.23272461,49.1927031542'
p1231
aS'-122.232517904,49.1934743633'
p1232
aS'-122.231981343,49.1942829588'
p1233
aS'-122.231260487,49.1950612891'
p1234
aS'-122.23086441,49.1958367713'
p1235
aS'-122.230704449,49.1966535547'
p1236
aS'-122.230742299,49.1979926683'
p1237
aS'-122.230135153,49.198819422'
p1238
aS'-122.229694406,49.1994396648'
p1239
aS'-122.229736428,49.1998583823'
p1240
aS'-122.203711958,49.199164436'
p1241
asg131
(lp1242
sg133
S'NDP'
p1243
sg135
S'74'
p1244
sg137
S'Abbotsford-Mission'
p1245
sg139
S'46'
p1246
sg141
(lp1247
sbsS'<VotingArea.VotingArea object at 0x1783290>'
p1248
g2
(g3
g4
Ntp1249
Rp1250
(dp1251
g8
I0
sg9
(lp1252
sg11
g12
sg13
S'LIB'
p1253
sg15
(lp1254
S'-121.970272249,49.2074134569'
p1255
aS'-121.976057347,49.2043425059'
p1256
aS'-121.979794739,49.2016649917'
p1257
aS'-121.984948455,49.1979812741'
p1258
aS'-121.989337718,49.1948013704'
p1259
aS'-121.996130235,49.1897756919'
p1260
aS'-121.999137128,49.1875176079'
p1261
aS'-122.000145064,49.1867602843'
p1262
aS'-122.001152273,49.1860179153'
p1263
aS'-122.001161471,49.1860143551'
p1264
aS'-122.005131103,49.184497216'
p1265
aS'-122.014288827,49.1809965097'
p1266
aS'-122.019423145,49.1786843051'
p1267
aS'-122.023106625,49.1770251013'
p1268
aS'-122.025016336,49.1761648786'
p1269
aS'-122.026822801,49.1753812075'
p1270
aS'-122.033109589,49.1722985062'
p1271
aS'-122.03405375,49.171131723'
p1272
aS'-122.036496521,49.1680151971'
p1273
aS'-122.037236717,49.1670698781'
p1274
aS'-122.041453766,49.1603045271'
p1275
aS'-122.041985404,49.1594784856'
p1276
aS'-122.04536523,49.1578100249'
p1277
aS'-122.047210111,49.1569829154'
p1278
aS'-122.056951594,49.1518294134'
p1279
aS'-122.06020582,49.1501075441'
p1280
aS'-122.061003493,49.1496710243'
p1281
aS'-122.063270585,49.1501221426'
p1282
aS'-122.068809493,49.1513255994'
p1283
aS'-122.07434216,49.1525272758'
p1284
aS'-122.078020426,49.152520155'
p1285
aS'-122.082792992,49.1522285485'
p1286
aS'-122.084025832,49.1558321537'
p1287
aS'-122.083985534,49.1583608375'
p1288
aS'-122.083942153,49.1611116977'
p1289
aS'-122.085050995,49.1609735495'
p1290
aS'-122.086864276,49.1613605787'
p1291
aS'-122.089379704,49.161056866'
p1292
aS'-122.089963723,49.161139826'
p1293
aS'-122.091125289,49.1616315345'
p1294
aS'-122.093147974,49.1619612386'
p1295
aS'-122.093410849,49.1619669356'
p1296
aS'-122.093353391,49.1632537087'
p1297
aS'-122.092940837,49.1700261802'
p1298
aS'-122.092951209,49.172193115'
p1299
aS'-122.092952655,49.1724754645'
p1300
aS'-122.092900648,49.1730739884'
p1301
aS'-122.091678388,49.1731459107'
p1302
aS'-122.089300959,49.1733015057'
p1303
aS'-122.08744361,49.1731227682'
p1304
aS'-122.085696204,49.173458525'
p1305
aS'-122.083513093,49.1742966721'
p1306
aS'-122.082000974,49.1754488577'
p1307
aS'-122.08021137,49.177170015'
p1308
aS'-122.079218794,49.1779989044'
p1309
aS'-122.077661206,49.179077031'
p1310
aS'-122.07577482,49.1803274868'
p1311
aS'-122.074784912,49.180994729'
p1312
aS'-122.073585644,49.1812902526'
p1313
aS'-122.072641066,49.1815512388'
p1314
aS'-122.071718206,49.1820447271'
p1315
aS'-122.071074835,49.1826621221'
p1316
aS'-122.070532125,49.1830381136'
p1317
aS'-122.070165075,49.1834393846'
p1318
aS'-122.070032675,49.1838684272'
p1319
aS'-122.070037231,49.1848767679'
p1320
aS'-122.069479115,49.1854624738'
p1321
aS'-122.069058337,49.1859883633'
p1322
aS'-122.069120287,49.1862550468'
p1323
aS'-122.068857177,49.1869643025'
p1324
aS'-122.068550419,49.1874182698'
p1325
aS'-122.068431847,49.1878277295'
p1326
aS'-122.068170883,49.1882090618'
p1327
aS'-122.068069663,49.1886765583'
p1328
aS'-122.068114703,49.1890205049'
p1329
aS'-122.068056188,49.1895666895'
p1330
aS'-122.06788499,49.1902193337'
p1331
aS'-122.067698949,49.1905294551'
p1332
aS'-122.067085155,49.1911475621'
p1333
aS'-122.066340433,49.1916602773'
p1334
aS'-122.065741109,49.1920619044'
p1335
aS'-122.064658948,49.1924913028'
p1336
aS'-122.063730941,49.1928003565'
p1337
aS'-122.062734924,49.1931147506'
p1338
aS'-122.061857553,49.1933604269'
p1339
aS'-122.060912068,49.1934636818'
p1340
aS'-122.060388812,49.1935605283'
p1341
aS'-122.059528445,49.1938243629'
p1342
aS'-122.058774956,49.1940760923'
p1343
aS'-122.058298771,49.1942074756'
p1344
aS'-122.057350254,49.1944325006'
p1345
aS'-122.057036117,49.1943879936'
p1346
aS'-122.056501025,49.1942309746'
p1347
aS'-122.05594587,49.1941188186'
p1348
aS'-122.05557688,49.1940832134'
p1349
aS'-122.055235688,49.1940825013'
p1350
aS'-122.054818735,49.1941718702'
p1351
aS'-122.053992266,49.1947009637'
p1352
aS'-122.053448625,49.1954045232'
p1353
aS'-122.052038285,49.1963227822'
p1354
aS'-122.050775214,49.196976139'
p1355
aS'-122.048606797,49.1978431258'
p1356
aS'-122.047350024,49.1983148951'
p1357
aS'-122.045310435,49.1984712022'
p1358
aS'-122.042626103,49.1987012125'
p1359
aS'-122.040081353,49.1990522797'
p1360
aS'-122.038365543,49.1993552799'
p1361
aS'-122.036838823,49.1996251678'
p1362
aS'-122.033468776,49.2003568557'
p1363
aS'-122.031067286,49.2010650437'
p1364
aS'-122.029422813,49.2018978501'
p1365
aS'-122.028820149,49.2021769948'
p1366
aS'-122.028172743,49.2023607184'
p1367
aS'-122.027518119,49.2025896595'
p1368
aS'-122.026844073,49.2027943901'
p1369
aS'-122.02642481,49.2028645326'
p1370
aS'-122.026147419,49.2029215004'
p1371
aS'-122.025624816,49.2029848783'
p1372
aS'-122.025187936,49.2030920494'
p1373
aS'-122.024586217,49.2034228224'
p1374
aS'-122.024207468,49.2036019164'
p1375
aS'-122.023762061,49.2039052735'
p1376
aS'-122.023062247,49.2043581719'
p1377
aS'-122.021955146,49.2052411819'
p1378
aS'-122.020933121,49.2062958085'
p1379
aS'-122.020061875,49.2071211377'
p1380
aS'-122.019243135,49.2079681864'
p1381
aS'-122.01794429,49.2089850718'
p1382
aS'-122.01650596,49.2098200149'
p1383
aS'-122.015675161,49.2103006854'
p1384
aS'-122.015411059,49.2103765244'
p1385
aS'-122.014792665,49.2105029234'
p1386
aS'-122.014222342,49.2105253542'
p1387
aS'-122.013585602,49.2104245917'
p1388
aS'-122.012768924,49.2101917332'
p1389
aS'-122.010991166,49.209481765'
p1390
aS'-122.010731709,49.2093753053'
p1391
aS'-122.009321653,49.2088034854'
p1392
aS'-122.007648135,49.2080999257'
p1393
aS'-122.006194687,49.2076160512'
p1394
aS'-122.005123543,49.2073034365'
p1395
aS'-122.004444358,49.2069961634'
p1396
aS'-122.004073658,49.2067604568'
p1397
aS'-122.003195125,49.2064346692'
p1398
aS'-122.001983829,49.2057175793'
p1399
aS'-122.000954401,49.2053807544'
p1400
aS'-121.999646349,49.2051001846'
p1401
aS'-121.997878267,49.2052960137'
p1402
aS'-121.997277337,49.2055370613'
p1403
aS'-121.995306619,49.2058226153'
p1404
aS'-121.993451284,49.2063157472'
p1405
aS'-121.992409581,49.2065464694'
p1406
aS'-121.991228275,49.2066653911'
p1407
aS'-121.989802368,49.2066639666'
p1408
aS'-121.988334889,49.2067141698'
p1409
aS'-121.986751761,49.2065599992'
p1410
aS'-121.985256902,49.2058261756'
p1411
aS'-121.984208103,49.2059073554'
p1412
aS'-121.982638807,49.2064086771'
p1413
aS'-121.980368971,49.2069644748'
p1414
aS'-121.979451542,49.2070730707'
p1415
aS'-121.978361979,49.2072044541'
p1416
aS'-121.977736396,49.207510659'
p1417
aS'-121.976220653,49.2077823268'
p1418
aS'-121.975063872,49.2078378718'
p1419
aS'-121.973458285,49.2077930092'
p1420
aS'-121.970272249,49.2074134569'
p1421
asg131
(lp1422
sg133
S'NDP'
p1423
sg135
S'64'
p1424
sg137
S'Abbotsford-Mission'
p1425
sg139
S'55'
p1426
sg141
(lp1427
sbsS'<VotingArea.VotingArea object at 0x177cb50>'
p1428
g2
(g3
g4
Ntp1429
Rp1430
(dp1431
g8
I0
sg9
(lp1432
sg11
g12
sg13
S'NDP'
p1433
sg15
(lp1434
S'-121.944130183,49.2268784828'
p1435
aS'-121.943549197,49.225369533'
p1436
aS'-121.943936773,49.222087798'
p1437
aS'-121.944600309,49.2170959441'
p1438
aS'-121.944803146,49.2155688357'
p1439
aS'-121.948045564,49.2150311967'
p1440
aS'-121.951525056,49.2141570884'
p1441
aS'-121.958952578,49.2125114145'
p1442
aS'-121.962342613,49.2115333384'
p1443
aS'-121.969155776,49.2079934662'
p1444
aS'-121.970272249,49.2074134569'
p1445
aS'-121.973458285,49.2077930092'
p1446
aS'-121.975063872,49.2078378718'
p1447
aS'-121.976220653,49.2077823268'
p1448
aS'-121.977736396,49.207510659'
p1449
aS'-121.978361979,49.2072044541'
p1450
aS'-121.979451542,49.2070730707'
p1451
aS'-121.980368971,49.2069644748'
p1452
aS'-121.982638807,49.2064086771'
p1453
aS'-121.984208103,49.2059073554'
p1454
aS'-121.985256902,49.2058261756'
p1455
aS'-121.986751761,49.2065599992'
p1456
aS'-121.988334889,49.2067141698'
p1457
aS'-121.989802368,49.2066639666'
p1458
aS'-121.991228275,49.2066653911'
p1459
aS'-121.992409581,49.2065464694'
p1460
aS'-121.993451284,49.2063157472'
p1461
aS'-121.995306619,49.2058226153'
p1462
aS'-121.997277337,49.2055370613'
p1463
aS'-121.997878267,49.2052960137'
p1464
aS'-121.999646349,49.2051001846'
p1465
aS'-122.000954401,49.2053807544'
p1466
aS'-122.001983829,49.2057175793'
p1467
aS'-122.003195125,49.2064346692'
p1468
aS'-122.004073658,49.2067604568'
p1469
aS'-122.004444358,49.2069961634'
p1470
aS'-122.005123543,49.2073034365'
p1471
aS'-122.006194687,49.2076160512'
p1472
aS'-122.007648135,49.2080999257'
p1473
aS'-122.009321653,49.2088034854'
p1474
aS'-122.009300968,49.2094636059'
p1475
aS'-122.009069628,49.2169232589'
p1476
aS'-122.013135602,49.2170617634'
p1477
aS'-122.012120807,49.2183449758'
p1478
aS'-122.011721189,49.2188843956'
p1479
aS'-122.011337492,49.2195605389'
p1480
aS'-122.011139048,49.2201063666'
p1481
aS'-122.011033737,49.2206247793'
p1482
aS'-122.011225659,49.2212973622'
p1483
aS'-122.011637389,49.221900871'
p1484
aS'-122.011861806,49.2222540752'
p1485
aS'-122.01251525,49.2231210626'
p1486
aS'-122.014046309,49.2245260451'
p1487
aS'-122.01473626,49.22519934'
p1488
aS'-122.015176873,49.2256817908'
p1489
aS'-122.015715349,49.2264405378'
p1490
aS'-122.015904481,49.2271035073'
p1491
aS'-122.015888806,49.2277864161'
p1492
aS'-122.015599711,49.22846612'
p1493
aS'-122.015119797,49.2291458239'
p1494
aS'-122.014702025,49.2296407367'
p1495
aS'-122.013896704,49.2300747646'
p1496
aS'-122.013022464,49.2304254756'
p1497
aS'-122.012014979,49.2307939899'
p1498
aS'-122.01090146,49.2312447525'
p1499
aS'-122.01076612,49.2313056376'
p1500
aS'-122.010146606,49.2315844261'
p1501
aS'-122.009385715,49.2319949544'
p1502
aS'-122.008960362,49.2322488204'
p1503
aS'-122.008850645,49.2323207431'
p1504
aS'-122.008459164,49.2325781684'
p1505
aS'-122.008344836,49.2326597043'
p1506
aS'-122.007661832,49.2333508025'
p1507
aS'-122.005265958,49.2356274004'
p1508
aS'-122.003038963,49.2377580177'
p1509
aS'-122.00139021,49.2393723598'
p1510
aS'-122.000971809,49.2397818197'
p1511
aS'-122.000031543,49.2406804954'
p1512
aS'-121.99979516,49.2409062329'
p1513
aS'-121.998924693,49.2415004838'
p1514
aS'-121.997953776,49.2419238308'
p1515
aS'-121.997494211,49.242115743'
p1516
aS'-121.995730988,49.2427844094'
p1517
aS'-121.994878325,49.2430827806'
p1518
aS'-121.99321557,49.2433658423'
p1519
aS'-121.991981294,49.2435232173'
p1520
aS'-121.9898559,49.2439113145'
p1521
aS'-121.987448285,49.2442712839'
p1522
aS'-121.982791742,49.244675759'
p1523
aS'-121.98095299,49.2449225032'
p1524
aS'-121.98075041,49.2449495637'
p1525
aS'-121.98076269,49.2447174169'
p1526
aS'-121.957481712,49.2452981383'
p1527
aS'-121.958946637,49.2449353212'
p1528
aS'-121.960240416,49.2446191466'
p1529
aS'-121.960263431,49.2446134499'
p1530
aS'-121.960384602,49.2445838971'
p1531
aS'-121.96693395,49.2414164558'
p1532
aS'-121.967531857,49.2407050636'
p1533
aS'-121.968288251,49.2386509975'
p1534
aS'-121.967664331,49.2369252116'
p1535
aS'-121.966176005,49.2355387442'
p1536
aS'-121.965471545,49.2348921525'
p1537
aS'-121.962780012,49.234187881'
p1538
aS'-121.958820416,49.2336559387'
p1539
aS'-121.955592749,49.2333992252'
p1540
aS'-121.952825633,49.2333127047'
p1541
aS'-121.949796434,49.2328982595'
p1542
aS'-121.947817714,49.2319255249'
p1543
aS'-121.946478356,49.2304147943'
p1544
aS'-121.944827237,49.2284134243'
p1545
aS'-121.944130183,49.2268784828'
p1546
asg131
(lp1547
sg133
S'LIB'
p1548
sg135
S'40'
p1549
sg137
S'Abbotsford-Mission'
p1550
sg139
S'35'
p1551
sg141
(lp1552
sbsS'<VotingArea.VotingArea object at 0x1770750>'
p1553
g2
(g3
g4
Ntp1554
Rp1555
(dp1556
g8
I0
sg9
(lp1557
sg11
g12
sg13
S'NDP'
p1558
sg15
(lp1559
S'-122.046447801,49.2323018717'
p1560
aS'-122.045419967,49.2321398678'
p1561
aS'-122.044806879,49.2320647411'
p1562
aS'-122.043814178,49.2320376812'
p1563
aS'-122.042232614,49.232005992'
p1564
aS'-122.040627871,49.231933358'
p1565
aS'-122.039328268,49.2318233375'
p1566
aS'-122.038212007,49.2316873253'
p1567
aS'-122.037178771,49.2315961759'
p1568
aS'-122.036546609,49.2314879364'
p1569
aS'-122.035553855,49.2313487197'
p1570
aS'-122.034638753,49.23124226'
p1571
aS'-122.033662515,49.2309905308'
p1572
aS'-122.032991015,49.2307573167'
p1573
aS'-122.03196353,49.2304172869'
p1574
aS'-122.030944598,49.2297721199'
p1575
aS'-122.030302718,49.2293758333'
p1576
aS'-122.02948538,49.2287972488'
p1577
aS'-122.028331888,49.2282183078'
p1578
aS'-122.027703173,49.227762204'
p1579
aS'-122.026953305,49.2271886042'
p1580
aS'-122.02617311,49.2266239047'
p1581
aS'-122.026136762,49.2147748391'
p1582
aS'-122.026319807,49.2120108052'
p1583
aS'-122.027115628,49.21213934'
p1584
aS'-122.027747682,49.2121350675'
p1585
aS'-122.027732177,49.2067184429'
p1586
aS'-122.038697129,49.206745147'
p1587
aS'-122.038703284,49.2057763284'
p1588
aS'-122.038343266,49.2020990198'
p1589
aS'-122.038340324,49.2014168232'
p1590
aS'-122.038324549,49.2009877807'
p1591
aS'-122.038365543,49.1993552799'
p1592
aS'-122.040081353,49.1990522797'
p1593
aS'-122.042626103,49.1987012125'
p1594
aS'-122.045310435,49.1984712022'
p1595
aS'-122.047350024,49.1983148951'
p1596
aS'-122.048606797,49.1978431258'
p1597
aS'-122.050775214,49.196976139'
p1598
aS'-122.052038285,49.1963227822'
p1599
aS'-122.053448625,49.1954045232'
p1600
aS'-122.053992266,49.1947009637'
p1601
aS'-122.054818735,49.1941718702'
p1602
aS'-122.055235688,49.1940825013'
p1603
aS'-122.05557688,49.1940832134'
p1604
aS'-122.05594587,49.1941188186'
p1605
aS'-122.056501025,49.1942309746'
p1606
aS'-122.057036117,49.1943879936'
p1607
aS'-122.057350254,49.1944325006'
p1608
aS'-122.058298771,49.1942074756'
p1609
aS'-122.058774956,49.1940760923'
p1610
aS'-122.059528445,49.1938243629'
p1611
aS'-122.060388812,49.1935605283'
p1612
aS'-122.060912068,49.1934636818'
p1613
aS'-122.061857553,49.1933604269'
p1614
aS'-122.062734924,49.1931147506'
p1615
aS'-122.063730941,49.1928003565'
p1616
aS'-122.064658948,49.1924913028'
p1617
aS'-122.065741109,49.1920619044'
p1618
aS'-122.066340433,49.1916602773'
p1619
aS'-122.067085155,49.1911475621'
p1620
aS'-122.067698949,49.1905294551'
p1621
aS'-122.06788499,49.1902193337'
p1622
aS'-122.068056188,49.1895666895'
p1623
aS'-122.068114703,49.1890205049'
p1624
aS'-122.068069663,49.1886765583'
p1625
aS'-122.068170883,49.1882090618'
p1626
aS'-122.068431847,49.1878277295'
p1627
aS'-122.068550419,49.1874182698'
p1628
aS'-122.068857177,49.1869643025'
p1629
aS'-122.069120287,49.1862550468'
p1630
aS'-122.069058337,49.1859883633'
p1631
aS'-122.069479115,49.1854624738'
p1632
aS'-122.070037231,49.1848767679'
p1633
aS'-122.070032675,49.1838684272'
p1634
aS'-122.070165075,49.1834393846'
p1635
aS'-122.070532125,49.1830381136'
p1636
aS'-122.071074835,49.1826621221'
p1637
aS'-122.071718206,49.1820447271'
p1638
aS'-122.072641066,49.1815512388'
p1639
aS'-122.073585644,49.1812902526'
p1640
aS'-122.074784912,49.180994729'
p1641
aS'-122.07577482,49.1803274868'
p1642
aS'-122.077661206,49.179077031'
p1643
aS'-122.079218794,49.1779989044'
p1644
aS'-122.08021137,49.177170015'
p1645
aS'-122.082000974,49.1754488577'
p1646
aS'-122.083513093,49.1742966721'
p1647
aS'-122.085696204,49.173458525'
p1648
aS'-122.08744361,49.1731227682'
p1649
aS'-122.089300959,49.1733015057'
p1650
aS'-122.091678388,49.1731459107'
p1651
aS'-122.092900648,49.1730739884'
p1652
aS'-122.093231698,49.1730529815'
p1653
aS'-122.095463739,49.1729625446'
p1654
aS'-122.098229154,49.1732815671'
p1655
aS'-122.09884756,49.1740171714'
p1656
aS'-122.098936076,49.1752113704'
p1657
aS'-122.0988919,49.1763621325'
p1658
aS'-122.099109897,49.1776275419'
p1659
aS'-122.100542598,49.1791742339'
p1660
aS'-122.10269508,49.1801544455'
p1661
aS'-122.104791539,49.1809434576'
p1662
aS'-122.107663235,49.1813571902'
p1663
aS'-122.109439899,49.1818090203'
p1664
aS'-122.112321517,49.1820967109'
p1665
aS'-122.115045548,49.1824840957'
p1666
aS'-122.117900761,49.1826343501'
p1667
aS'-122.120042834,49.1818435579'
p1668
aS'-122.122119781,49.1812528669'
p1669
aS'-122.123549323,49.1810417283'
p1670
aS'-122.125457581,49.1806475779'
p1671
aS'-122.127925722,49.1801430518'
p1672
aS'-122.130548975,49.1789926464'
p1673
aS'-122.132309064,49.1777268805'
p1674
aS'-122.132875351,49.1760018067'
p1675
aS'-122.134232872,49.1738850761'
p1676
aS'-122.134749169,49.172279636'
p1677
aS'-122.136033631,49.1700924062'
p1678
aS'-122.138760306,49.1686738941'
p1679
aS'-122.141899778,49.1673490232'
p1680
aS'-122.145954879,49.1659333592'
p1681
aS'-122.149751339,49.1649203897'
p1682
aS'-122.153452777,49.1638828533'
p1683
aS'-122.158488535,49.1630571678'
p1684
aS'-122.163874969,49.1630806678'
p1685
aS'-122.167139515,49.1637475536'
p1686
aS'-122.172545698,49.1655424137'
p1687
aS'-122.176049335,49.1669502446'
p1688
aS'-122.173306975,49.1673582806'
p1689
aS'-122.171848652,49.16731413'
p1690
aS'-122.169757965,49.1667490752'
p1691
aS'-122.166648156,49.1662684044'
p1692
aS'-122.164458727,49.1661623006'
p1693
aS'-122.162778917,49.1664410899'
p1694
aS'-122.161597473,49.1661701337'
p1695
aS'-122.160299984,49.1657005004'
p1696
aS'-122.159065872,49.1657496358'
p1697
aS'-122.158159146,49.1662007541'
p1698
aS'-122.157589447,49.1669915464'
p1699
aS'-122.157614527,49.1680426129'
p1700
aS'-122.156439228,49.1692403733'
p1701
aS'-122.153807148,49.1697395582'
p1702
aS'-122.151868973,49.1698620401'
p1703
aS'-122.149753228,49.1701621924'
p1704
aS'-122.148085641,49.1704292314'
p1705
aS'-122.146744373,49.170838692'
p1706
aS'-122.145708776,49.1711751611'
p1707
aS'-122.145090298,49.171352476'
p1708
aS'-122.144926294,49.1716747027'
p1709
aS'-122.145196055,49.172053543'
p1710
aS'-122.145840859,49.172623226'
p1711
aS'-122.146358984,49.1731373657'
p1712
aS'-122.146516611,49.1732897561'
p1713
aS'-122.147581872,49.173959847'
p1714
aS'-122.148667941,49.1748378723'
p1715
aS'-122.148889349,49.1751697126'
p1716
aS'-122.149078997,49.1756970258'
p1717
aS'-122.149163495,49.1759427025'
p1718
aS'-122.149202624,49.1760459575'
p1719
aS'-122.149339298,49.176833189'
p1720
aS'-122.149776796,49.177996768'
p1721
aS'-122.150606873,49.1787822197'
p1722
aS'-122.1513462,49.1795277934'
p1723
aS'-122.151858324,49.1801455445'
p1724
aS'-122.152213206,49.1807971201'
p1725
aS'-122.152185553,49.1815088686'
p1726
aS'-122.152040857,49.1821753989'
p1727
aS'-122.152222147,49.1828903517'
p1728
aS'-122.153016399,49.1838538295'
p1729
aS'-122.153507765,49.1845346017'
p1730
aS'-122.15402801,49.1853877033'
p1731
aS'-122.154411634,49.1860499601'
p1732
aS'-122.154980481,49.1868578435'
p1733
aS'-122.15581278,49.1876689299'
p1734
aS'-122.156981813,49.1883657246'
p1735
aS'-122.158841083,49.1893612468'
p1736
aS'-122.159006828,49.1898864239'
p1737
aS'-122.159015172,49.1903147551'
p1738
aS'-122.158770253,49.1905853548'
p1739
aS'-122.158402717,49.1907868803'
p1740
aS'-122.158172368,49.1911286913'
p1741
aS'-122.158081375,49.1914338274'
p1742
aS'-122.157824072,49.191695882'
p1743
aS'-122.157293762,49.1919967464'
p1744
aS'-122.156731654,49.1923246708'
p1745
aS'-122.155926218,49.1926522393'
p1746
aS'-122.155497242,49.1929328078'
p1747
aS'-122.155088743,49.1933372836'
p1748
aS'-122.154747477,49.1938400296'
p1749
aS'-122.154284275,49.1945029989'
p1750
aS'-122.153905065,49.194978685'
p1751
aS'-122.153134471,49.1954768018'
p1752
aS'-122.15247566,49.1960568117'
p1753
aS'-122.152017507,49.1965923138'
p1754
aS'-122.151757985,49.1970747654'
p1755
aS'-122.151388288,49.1978662692'
p1756
aS'-122.151286988,49.1984608768'
p1757
aS'-122.151204641,49.1988436334'
p1758
aS'-122.150926112,49.1992716084'
p1759
aS'-122.150366117,49.199880814'
p1760
aS'-122.150176014,49.2002283207'
p1761
aS'-122.150160654,49.2004700801'
p1762
aS'-122.150308704,49.200595767'
p1763
aS'-122.150627747,49.2007880352'
p1764
aS'-122.151047283,49.201047241'
p1765
aS'-122.151323693,49.2014481558'
p1766
aS'-122.151433121,49.201827352'
p1767
aS'-122.151505343,49.2022400165'
p1768
aS'-122.151394668,49.2026412871'
p1769
aS'-122.151250139,49.2029984083'
p1770
aS'-122.15096237,49.2034356406'
p1771
aS'-122.150673733,49.2039444388'
p1772
aS'-122.150550263,49.2043378772'
p1773
aS'-122.15072402,49.2048028811'
p1774
aS'-122.150961544,49.2052319243'
p1775
aS'-122.151307132,49.2056883832'
p1776
aS'-122.151290738,49.206250234'
p1777
aS'-122.151153732,49.2067782596'
p1778
aS'-122.15104355,49.2071086761'
p1779
aS'-122.151204038,49.2074301918'
p1780
aS'-122.150484258,49.2083847677'
p1781
aS'-122.150301735,49.2088579612'
p1782
aS'-122.149832094,49.2094924465'
p1783
aS'-122.149481866,49.2096793743'
p1784
aS'-122.148839378,49.2099108083'
p1785
aS'-122.148666171,49.2103405634'
p1786
aS'-122.148975497,49.2106980394'
p1787
aS'-122.149125286,49.2110017528'
p1788
aS'-122.149037018,49.2112249971'
p1789
aS'-122.148551746,49.2115187408'
p1790
aS'-122.147893915,49.2118933074'
p1791
aS'-122.147163024,49.212624995'
p1792
aS'-122.147416627,49.2130454927'
p1793
aS'-122.147960527,49.2134303851'
p1794
aS'-122.148343049,49.2139131925'
p1795
aS'-122.148058638,49.2159857736'
p1796
aS'-122.147272061,49.2170564225'
p1797
aS'-122.146701822,49.2178336846'
p1798
aS'-122.146686042,49.2183246813'
p1799
aS'-122.145883387,49.2187127784'
p1800
aS'-122.144747362,49.219032157'
p1801
aS'-122.143710265,49.2196990429'
p1802
aS'-122.143859208,49.2204538742'
p1803
aS'-122.144396775,49.2210602315'
p1804
aS'-122.144275763,49.2216085516'
p1805
aS'-122.143596073,49.2225342876'
p1806
aS'-122.142292852,49.223252089'
p1807
aS'-122.141420363,49.2237242145'
p1808
aS'-122.141330649,49.2242472559'
p1809
aS'-122.141484473,49.2252442021'
p1810
aS'-122.141298331,49.2256055954'
p1811
aS'-122.140177217,49.2260823493'
p1812
aS'-122.139283892,49.22613825'
p1813
aS'-122.137606875,49.2259840794'
p1814
aS'-122.136345406,49.2257697354'
p1815
aS'-122.135993038,49.2260008133'
p1816
aS'-122.135974845,49.226529195'
p1817
aS'-122.136649919,49.2282674429'
p1818
aS'-122.136396448,49.2287160686'
p1819
aS'-122.135681991,49.2291771561'
p1820
aS'-122.135434897,49.2295438904'
p1821
aS'-122.135519883,49.2301940418'
p1822
aS'-122.135404737,49.2306494332'
p1823
aS'-122.134992594,49.2310279168'
p1824
aS'-122.134775295,49.2316175397'
p1825
aS'-122.134931134,49.2324072634'
p1826
aS'-122.135337154,49.2330189611'
p1827
aS'-122.135448828,49.2333931721'
p1828
aS'-122.135058226,49.2338571082'
p1829
aS'-122.133526818,49.2348245026'
p1830
aS'-122.132702042,49.2356765356'
p1831
aS'-122.132662308,49.2358075635'
p1832
aS'-122.131609762,49.2368440318'
p1833
aS'-122.13033134,49.238057102'
p1834
aS'-122.128706391,49.2388724622'
p1835
aS'-122.127154869,49.2392780053'
p1836
aS'-122.125986503,49.2398021147'
p1837
aS'-122.125448104,49.2404682882'
p1838
aS'-122.124713011,49.2412209826'
p1839
aS'-122.124119453,49.2422706258'
p1840
aS'-122.123960163,49.2438539899'
p1841
aS'-122.123586575,49.2439860852'
p1842
aS'-122.123024037,49.244009585'
p1843
aS'-122.122125951,49.2441053635'
p1844
aS'-122.121039619,49.244691781'
p1845
aS'-122.119855258,49.2456520549'
p1846
aS'-122.119121661,49.2460668553'
p1847
aS'-122.11837087,49.2468747386'
p1848
aS'-122.116960766,49.2476242284'
p1849
aS'-122.115223566,49.248626516'
p1850
aS'-122.114582799,49.2499556592'
p1851
aS'-122.114257835,49.2503028098'
p1852
aS'-122.112606459,49.2505545391'
p1853
aS'-122.111121273,49.2507695946'
p1854
aS'-122.109945614,49.2512456368'
p1855
aS'-122.109068352,49.2520994504'
p1856
aS'-122.108939684,49.2529714227'
p1857
aS'-122.108587186,49.2535176067'
p1858
aS'-122.106464903,49.254211909'
p1859
aS'-122.106155009,49.2546683682'
p1860
aS'-122.106276309,49.2552814899'
p1861
aS'-122.105870321,49.2560697902'
p1862
aS'-122.105105504,49.2569364216'
p1863
aS'-122.105536264,49.2586212614'
p1864
aS'-122.105734449,49.2594416058'
p1865
aS'-122.105537582,49.2603933334'
p1866
aS'-122.10399989,49.2614066582'
p1867
aS'-122.102739544,49.2620813776'
p1868
aS'-122.102034421,49.2637665737'
p1869
aS'-122.101468151,49.2653645366'
p1870
aS'-122.100815559,49.2664747081'
p1871
aS'-122.100109868,49.2679078185'
p1872
aS'-122.099830732,49.268278113'
p1873
aS'-122.061517921,49.2681431686'
p1874
aS'-122.062292496,49.2641575194'
p1875
aS'-122.06337742,49.2603075253'
p1876
aS'-122.064449392,49.2573501545'
p1877
aS'-122.067554135,49.252601128'
p1878
aS'-122.069551239,49.250063187'
p1879
aS'-122.071737857,49.2477951339'
p1880
aS'-122.073963236,49.2454476804'
p1881
aS'-122.076612603,49.2431468705'
p1882
aS'-122.077203093,49.2417379714'
p1883
aS'-122.076752778,49.2404116761'
p1884
aS'-122.074874746,49.2392552182'
p1885
aS'-122.072450629,49.2388995214'
p1886
aS'-122.069886764,49.2382187496'
p1887
aS'-122.067838126,49.2376747015'
p1888
aS'-122.063648827,49.2365378266'
p1889
aS'-122.058879719,49.2356715509'
p1890
aS'-122.053680874,49.2340661111'
p1891
aS'-122.052600384,49.2337488688'
p1892
aS'-122.050156219,49.2330438852'
p1893
aS'-122.048164295,49.2326130612'
p1894
aS'-122.046447801,49.2323018717'
p1895
asg131
(lp1896
sg133
S'LIB'
p1897
sg135
S'63'
p1898
sg137
S'Abbotsford-Mission'
p1899
sg139
S'43'
p1900
sg141
(lp1901
sbs.